; Function Attrs: mustprogress nounwind uwtable
define internal fastcc void @_ZN12_GLOBAL__N_114ODRTypeVisitor22VisitMemberPointerTypeEPKN5clang17MemberPointerTypeE(ptr noundef nonnull readonly align 8 captures(none) dereferenceable(16) %0, ptr noundef readonly captures(none) %1) unnamed_addr #0 align 2 {
  %3 = getelementptr inbounds nuw i8, ptr %1, i64 32
  %.sroa.0.0.copyload.i = load i64, ptr %3, align 16
  %4 = getelementptr inbounds nuw i8, ptr %0, i64 8
  %5 = load ptr, ptr %4, align 8
  tail call void @_ZN5clang7ODRHash11AddQualTypeENS_8QualTypeE(ptr noundef nonnull align 8 dereferenceable(320) %5, i64 %.sroa.0.0.copyload.i)
  %6 = getelementptr inbounds nuw i8, ptr %1, i64 40
  %7 = load ptr, ptr %6, align 8
  %8 = load ptr, ptr %4, align 8
  %9 = icmp ne ptr %7, null
  %10 = getelementptr inbounds nuw i8, ptr %8, i64 24
  %11 = tail call noundef i64 @_ZNK4llvm15SmallVectorBaseImE4sizeEv(ptr noundef nonnull align 8 dereferenceable(24) %10) #14
  %12 = add i64 %11, 1
  %13 = tail call noundef i64 @_ZNK4llvm15SmallVectorBaseImE8capacityEv(ptr noundef nonnull align 8 dereferenceable(24) %10) #14
  %.not.i.i.i.i = icmp ugt i64 %12, %13
  br i1 %.not.i.i.i.i, label %14, label %_ZN5clang7ODRHash10AddBooleanEb.exit

14:                                               ; preds = %2
  %15 = getelementptr inbounds nuw i8, ptr %8, i64 48
  tail call void @_ZN4llvm15SmallVectorBaseImE8grow_podEPvmm(ptr noundef nonnull align 8 dereferenceable(24) %10, ptr noundef nonnull %15, i64 noundef %12, i64 noundef 1) #14
  br label %_ZN5clang7ODRHash10AddBooleanEb.exit

_ZN5clang7ODRHash10AddBooleanEb.exit:             ; preds = %2, %14
  %16 = zext i1 %9 to i8
  %17 = load ptr, ptr %10, align 8
  %18 = tail call noundef i64 @_ZNK4llvm15SmallVectorBaseImE4sizeEv(ptr noundef nonnull align 8 dereferenceable(24) %10) #14
  %19 = getelementptr inbounds i8, ptr %17, i64 %18
  store i8 %16, ptr %19, align 1
  %20 = tail call noundef i64 @_ZNK4llvm15SmallVectorBaseImE4sizeEv(ptr noundef nonnull align 8 dereferenceable(24) %10) #14
  %21 = add i64 %20, 1
  tail call void @_ZN4llvm15SmallVectorBaseImE8set_sizeEm(ptr noundef nonnull align 8 dereferenceable(24) %10, i64 noundef %21) #14
  br i1 %9, label %22, label %_ZN12_GLOBAL__N_114ODRTypeVisitor7AddTypeEPKN5clang4TypeE.exit

22:                                               ; preds = %_ZN5clang7ODRHash10AddBooleanEb.exit
  %23 = load ptr, ptr %4, align 8
  tail call void @_ZN5clang7ODRHash7AddTypeEPKNS_4TypeE(ptr noundef nonnull align 8 dereferenceable(320) %23, ptr noundef nonnull %7)
  br label %_ZN12_GLOBAL__N_114ODRTypeVisitor7AddTypeEPKN5clang4TypeE.exit

_ZN12_GLOBAL__N_114ODRTypeVisitor7AddTypeEPKN5clang4TypeE.exit: ; preds = %_ZN5clang7ODRHash10AddBooleanEb.exit, %22
  ret void
}